target datalayout = "e-m:e-p270:32:32-p271:32:32-p272:64:64-i64:64-i128:128-f80:128-n8:16:32:64-S128"
target triple = "x86_64-pc-linux-gnu"

%struct.Vec_Int_t_ = type { i32, i32, ptr }
%struct.Gia_Man_t_ = type { ptr, ptr, i32, i32, i32, i32, ptr, ptr, i32, i32, i32, ptr, ptr, %struct.Vec_Int_t_, %struct.Vec_Int_t_, i32, i32, i32, %struct.Vec_Int_t_, ptr, ptr, ptr, i32, i32, i32, i32, ptr, ptr, ptr, ptr, ptr, i32, i32, ptr, i32, ptr, ptr, ptr, ptr, ptr, ptr, ptr, ptr, ptr, ptr, ptr, ptr, ptr, ptr, ptr, ptr, ptr, ptr, %struct.Vec_Int_t_, %struct.Vec_Int_t_, ptr, ptr, ptr, ptr, ptr, ptr, ptr, ptr, ptr, ptr, ptr, ptr, ptr, ptr, ptr, ptr, ptr, ptr, ptr, ptr, ptr, i32, float, float, ptr, ptr, i32, ptr, ptr, ptr, ptr, ptr, ptr, ptr, ptr, ptr, ptr, ptr, ptr, ptr, ptr, ptr, i64, i64, ptr, ptr, i32, i32, i32, i32, i32, i32, i32, i32, i32, i32, i32, i32, ptr, ptr, ptr, ptr, ptr, ptr, ptr, ptr, i32, i32, i32, ptr, i32, i32, ptr, ptr, ptr, ptr, ptr, ptr, i32, i32, ptr, %struct.Vec_Int_t_, %struct.Vec_Int_t_, %struct.Vec_Int_t_, ptr, ptr, ptr, i32, i32, i32, i32, ptr, ptr, ptr, ptr, ptr }
%struct.Abc_Cex_t_ = type { i32, i32, i32, i32, i32, [0 x i32] }

; Function Attrs: inlinehint nounwind uwtable
define internal i32 @Vec_IntSize(ptr noundef %0) #1 {
  %2 = alloca ptr, align 8
  store ptr %0, ptr %2, align 8, !tbaa !17
  %3 = load ptr, ptr %2, align 8, !tbaa !17
  %4 = getelementptr inbounds nuw %struct.Vec_Int_t_, ptr %3, i32 0, i32 1
  %5 = load i32, ptr %4, align 4, !tbaa !56
  ret i32 %5
}

; Function Attrs: inlinehint nounwind uwtable
define internal void @Abc_InfoSetBit(ptr noundef %0, i32 noundef %1) #1 {
  %3 = alloca ptr, align 8
  %4 = alloca i32, align 4
  store ptr %0, ptr %3, align 8, !tbaa !59
  store i32 %1, ptr %4, align 4, !tbaa !30
  %5 = load i32, ptr %4, align 4, !tbaa !30
  %6 = and i32 %5, 31
  %7 = shl i32 1, %6
  %8 = load ptr, ptr %3, align 8, !tbaa !59
  %9 = load i32, ptr %4, align 4, !tbaa !30
  %10 = ashr i32 %9, 5
  %11 = sext i32 %10 to i64
  %12 = getelementptr inbounds i32, ptr %8, i64 %11
  %13 = load i32, ptr %12, align 4, !tbaa !30
  %14 = or i32 %13, %7
  store i32 %14, ptr %12, align 4, !tbaa !30
  ret void
}

; Function Attrs: inlinehint nounwind uwtable
define internal i32 @Abc_InfoHasBit(ptr noundef %0, i32 noundef %1) #1 {
  %3 = alloca ptr, align 8
  %4 = alloca i32, align 4
  store ptr %0, ptr %3, align 8, !tbaa !59
  store i32 %1, ptr %4, align 4, !tbaa !30
  %5 = load ptr, ptr %3, align 8, !tbaa !59
  %6 = load i32, ptr %4, align 4, !tbaa !30
  %7 = ashr i32 %6, 5
  %8 = sext i32 %7 to i64
  %9 = getelementptr inbounds i32, ptr %5, i64 %8
  %10 = load i32, ptr %9, align 4, !tbaa !30
  %11 = load i32, ptr %4, align 4, !tbaa !30
  %12 = and i32 %11, 31
  %13 = shl i32 1, %12
  %14 = and i32 %10, %13
  %15 = icmp ugt i32 %14, 0
  %16 = zext i1 %15 to i32
  ret i32 %16
}

; Function Attrs: inlinehint nounwind uwtable
define internal i32 @Gia_ManPiNum(ptr noundef %0) #1 {
  %2 = alloca ptr, align 8
  store ptr %0, ptr %2, align 8, !tbaa !20
  %3 = load ptr, ptr %2, align 8, !tbaa !20
  %4 = getelementptr inbounds nuw %struct.Gia_Man_t_, ptr %3, i32 0, i32 11
  %5 = load ptr, ptr %4, align 8, !tbaa !85
  %6 = call i32 @Vec_IntSize(ptr noundef %5)
  %7 = load ptr, ptr %2, align 8, !tbaa !20
  %8 = getelementptr inbounds nuw %struct.Gia_Man_t_, ptr %7, i32 0, i32 2
  %9 = load i32, ptr %8, align 8, !tbaa !84
  %10 = sub nsw i32 %6, %9
  ret i32 %10
}

; Function Attrs: inlinehint nounwind uwtable
define internal i32 @Gia_ManRegNum(ptr noundef %0) #1 {
  %2 = alloca ptr, align 8
  store ptr %0, ptr %2, align 8, !tbaa !20
  %3 = load ptr, ptr %2, align 8, !tbaa !20
  %4 = getelementptr inbounds nuw %struct.Gia_Man_t_, ptr %3, i32 0, i32 2
  %5 = load i32, ptr %4, align 8, !tbaa !84
  ret i32 %5
}

; Function Attrs: nounwind uwtable
define ptr @Gia_Sim2GenerateCounter(ptr noundef %0, i32 noundef %1, i32 noundef %2, i32 noundef %3, i32 noundef %4) #0 {
  %6 = alloca ptr, align 8
  %7 = alloca i32, align 4
  %8 = alloca i32, align 4
  %9 = alloca i32, align 4
  %10 = alloca i32, align 4
  %11 = alloca ptr, align 8
  %12 = alloca ptr, align 8
  %13 = alloca i32, align 4
  %14 = alloca i32, align 4
  %15 = alloca i32, align 4
  %16 = alloca i32, align 4
  store ptr %0, ptr %6, align 8, !tbaa !20
  store i32 %1, ptr %7, align 4, !tbaa !30
  store i32 %2, ptr %8, align 4, !tbaa !30
  store i32 %3, ptr %9, align 4, !tbaa !30
  store i32 %4, ptr %10, align 4, !tbaa !30
  call void @llvm.lifetime.start.p0(i64 8, ptr %11) #11
  call void @llvm.lifetime.start.p0(i64 8, ptr %12) #11
  call void @llvm.lifetime.start.p0(i64 4, ptr %13) #11
  call void @llvm.lifetime.start.p0(i64 4, ptr %14) #11
  call void @llvm.lifetime.start.p0(i64 4, ptr %15) #11
  call void @llvm.lifetime.start.p0(i64 4, ptr %16) #11
  %17 = load ptr, ptr %6, align 8, !tbaa !20
  %18 = call i32 @Gia_ManRegNum(ptr noundef %17)
  %19 = load ptr, ptr %6, align 8, !tbaa !20
  %20 = call i32 @Gia_ManPiNum(ptr noundef %19)
  %21 = load i32, ptr %7, align 4, !tbaa !30
  %22 = add nsw i32 %21, 1
  %23 = call ptr @Abc_CexAlloc(i32 noundef %18, i32 noundef %20, i32 noundef %22)
  store ptr %23, ptr %11, align 8, !tbaa !75
  %24 = load i32, ptr %7, align 4, !tbaa !30
  %25 = load ptr, ptr %11, align 8, !tbaa !75
  %26 = getelementptr inbounds nuw %struct.Abc_Cex_t_, ptr %25, i32 0, i32 1
  store i32 %24, ptr %26, align 4, !tbaa !76
  %27 = load i32, ptr %8, align 4, !tbaa !30
  %28 = load ptr, ptr %11, align 8, !tbaa !75
  %29 = getelementptr inbounds nuw %struct.Abc_Cex_t_, ptr %28, i32 0, i32 0
  store i32 %27, ptr %29, align 4, !tbaa !78
  %30 = load ptr, ptr %11, align 8, !tbaa !75
  %31 = getelementptr inbounds nuw %struct.Abc_Cex_t_, ptr %30, i32 0, i32 2
  %32 = load i32, ptr %31, align 4, !tbaa !79
  store i32 %32, ptr %16, align 4, !tbaa !30
  %33 = load i32, ptr %9, align 4, !tbaa !30
  %34 = sext i32 %33 to i64
  %35 = mul i64 4, %34
  %36 = call noalias ptr @malloc(i64 noundef %35) #13
  store ptr %36, ptr %12, align 8, !tbaa !59
  store i32 0, ptr %13, align 4, !tbaa !30
  br label %37

37:                                               ; preds = %79, %5
  %38 = load i32, ptr %13, align 4, !tbaa !30
  %39 = load i32, ptr %7, align 4, !tbaa !30
  %40 = icmp sle i32 %38, %39
  br i1 %40, label %41, label %87

41:                                               ; preds = %37
  store i32 0, ptr %14, align 4, !tbaa !30
  br label %42

42:                                               ; preds = %75, %41
  %43 = load i32, ptr %14, align 4, !tbaa !30
  %44 = load ptr, ptr %6, align 8, !tbaa !20
  %45 = call i32 @Gia_ManPiNum(ptr noundef %44)
  %46 = icmp slt i32 %43, %45
  br i1 %46, label %47, label %78

47:                                               ; preds = %42
  %48 = load i32, ptr %9, align 4, !tbaa !30
  %49 = sub nsw i32 %48, 1
  store i32 %49, ptr %15, align 4, !tbaa !30
  br label %50

50:                                               ; preds = %59, %47
  %51 = load i32, ptr %15, align 4, !tbaa !30
  %52 = icmp sge i32 %51, 0
  br i1 %52, label %53, label %62

53:                                               ; preds = %50
  %54 = call i32 @Gia_ManRandom(i32 noundef 0)
  %55 = load ptr, ptr %12, align 8, !tbaa !59
  %56 = load i32, ptr %15, align 4, !tbaa !30
  %57 = sext i32 %56 to i64
  %58 = getelementptr inbounds i32, ptr %55, i64 %57
  store i32 %54, ptr %58, align 4, !tbaa !30
  br label %59

59:                                               ; preds = %53
  %60 = load i32, ptr %15, align 4, !tbaa !30
  %61 = add nsw i32 %60, -1
  store i32 %61, ptr %15, align 4, !tbaa !30
  br label %50, !llvm.loop !80

62:                                               ; preds = %50
  %63 = load ptr, ptr %12, align 8, !tbaa !59
  %64 = load i32, ptr %10, align 4, !tbaa !30
  %65 = call i32 @Abc_InfoHasBit(ptr noundef %63, i32 noundef %64)
  %66 = icmp ne i32 %65, 0
  br i1 %66, label %67, label %74

67:                                               ; preds = %62
  %68 = load ptr, ptr %11, align 8, !tbaa !75
  %69 = getelementptr inbounds nuw %struct.Abc_Cex_t_, ptr %68, i32 0, i32 5
  %70 = getelementptr inbounds [0 x i32], ptr %69, i64 0, i64 0
  %71 = load i32, ptr %16, align 4, !tbaa !30
  %72 = load i32, ptr %14, align 4, !tbaa !30
  %73 = add nsw i32 %71, %72
  call void @Abc_InfoSetBit(ptr noundef %70, i32 noundef %73)
  br label %74

74:                                               ; preds = %67, %62
  br label %75

75:                                               ; preds = %74
  %76 = load i32, ptr %14, align 4, !tbaa !30
  %77 = add nsw i32 %76, 1
  store i32 %77, ptr %14, align 4, !tbaa !30
  br label %42, !llvm.loop !81

78:                                               ; preds = %42
  br label %79

79:                                               ; preds = %78
  %80 = load i32, ptr %13, align 4, !tbaa !30
  %81 = add nsw i32 %80, 1
  store i32 %81, ptr %13, align 4, !tbaa !30
  %82 = load ptr, ptr %11, align 8, !tbaa !75
  %83 = getelementptr inbounds nuw %struct.Abc_Cex_t_, ptr %82, i32 0, i32 3
  %84 = load i32, ptr %83, align 4, !tbaa !82
  %85 = load i32, ptr %16, align 4, !tbaa !30
  %86 = add nsw i32 %85, %84
  store i32 %86, ptr %16, align 4, !tbaa !30
  br label %37, !llvm.loop !83

87:                                               ; preds = %37
  %88 = load ptr, ptr %12, align 8, !tbaa !59
  %89 = icmp ne ptr %88, null
  br i1 %89, label %90, label %92

90:                                               ; preds = %87
  %91 = load ptr, ptr %12, align 8, !tbaa !59
  call void @free(ptr noundef %91) #11
  store ptr null, ptr %12, align 8, !tbaa !59
  br label %93

92:                                               ; preds = %87
  br label %93

93:                                               ; preds = %92, %90
  %94 = load ptr, ptr %11, align 8, !tbaa !75
  call void @llvm.lifetime.end.p0(i64 4, ptr %16) #11
  call void @llvm.lifetime.end.p0(i64 4, ptr %15) #11
  call void @llvm.lifetime.end.p0(i64 4, ptr %14) #11
  call void @llvm.lifetime.end.p0(i64 4, ptr %13) #11
  call void @llvm.lifetime.end.p0(i64 8, ptr %12) #11
  call void @llvm.lifetime.end.p0(i64 8, ptr %11) #11
  ret ptr %94
}