; Function Attrs: nounwind uwtable
define noundef ptr @Gia_Sim2GenerateCounter(ptr noundef readonly captures(none) %0, i32 noundef %1, i32 noundef %2, i32 noundef %3, i32 noundef %4) local_unnamed_addr #2 {
  %6 = getelementptr i8, ptr %0, i64 16
  %.val = load i32, ptr %6, align 8, !tbaa !69
  %7 = getelementptr i8, ptr %0, i64 64
  %.val36 = load ptr, ptr %7, align 8, !tbaa !70
  %8 = getelementptr i8, ptr %.val36, i64 4
  %.val36.val = load i32, ptr %8, align 4, !tbaa !38
  %9 = sub nsw i32 %.val36.val, %.val
  %10 = add i32 %1, 1
  %11 = tail call ptr @Abc_CexAlloc(i32 noundef %.val, i32 noundef %9, i32 noundef %10) #16
  %12 = getelementptr inbounds nuw i8, ptr %11, i64 4
  store i32 %1, ptr %12, align 4, !tbaa !71
  store i32 %2, ptr %11, align 4, !tbaa !73
  %13 = getelementptr inbounds nuw i8, ptr %11, i64 8
  %14 = load i32, ptr %13, align 4, !tbaa !74
  %15 = sext i32 %3 to i64
  %16 = shl nsw i64 %15, 2
  %17 = tail call noalias ptr @malloc(i64 noundef %16) #18
  %.not50 = icmp slt i32 %1, 0
  br i1 %.not50, label %._crit_edge, label %.preheader39.lr.ph

.preheader39.lr.ph:                               ; preds = %5
  %18 = icmp sgt i32 %3, 0
  %19 = ashr i32 %4, 5
  %20 = sext i32 %19 to i64
  %21 = getelementptr inbounds i32, ptr %17, i64 %20
  %22 = and i32 %4, 31
  %23 = shl nuw i32 1, %22
  %24 = getelementptr inbounds nuw i8, ptr %11, i64 20
  %25 = getelementptr inbounds nuw i8, ptr %11, i64 12
  br i1 %18, label %.preheader39.us.preheader, label %.preheader39.preheader

.preheader39.preheader:                           ; preds = %.preheader39.lr.ph
  %.val3741.pre = load i32, ptr %6, align 8, !tbaa !69
  %.val3842.pre = load ptr, ptr %7, align 8, !tbaa !70
  %26 = getelementptr i8, ptr %.val3842.pre, i64 4
  %27 = getelementptr i8, ptr %.val3842.pre, i64 4
  br label %.preheader39

.preheader39.us.preheader:                        ; preds = %.preheader39.lr.ph
  %28 = zext nneg i32 %3 to i64
  %.val3741.us.pre = load i32, ptr %6, align 8, !tbaa !69
  %.val3842.us.pre = load ptr, ptr %7, align 8, !tbaa !70
  br label %.preheader39.us

.preheader39.us:                                  ; preds = %.preheader39.us.preheader, %._crit_edge45.split.us.us
  %.val3842.us = phi ptr [ %.val3842.us64, %._crit_edge45.split.us.us ], [ %.val3842.us.pre, %.preheader39.us.preheader ]
  %.val3741.us = phi i32 [ %.val3741.us62, %._crit_edge45.split.us.us ], [ %.val3741.us.pre, %.preheader39.us.preheader ]
  %.052.us = phi i32 [ %33, %._crit_edge45.split.us.us ], [ %14, %.preheader39.us.preheader ]
  %.03151.us = phi i32 [ %31, %._crit_edge45.split.us.us ], [ 0, %.preheader39.us.preheader ]
  %29 = getelementptr i8, ptr %.val3842.us, i64 4
  %.val38.val43.us = load i32, ptr %29, align 4, !tbaa !38
  %30 = icmp sgt i32 %.val38.val43.us, %.val3741.us
  br i1 %30, label %.preheader.us.us, label %._crit_edge45.split.us.us

._crit_edge45.split.us.us:                        ; preds = %43, %.preheader39.us
  %.val3842.us64 = phi ptr [ %.val3842.us, %.preheader39.us ], [ %.val38.us.us, %43 ]
  %.val3741.us62 = phi i32 [ %.val3741.us, %.preheader39.us ], [ %.val37.us.us, %43 ]
  %31 = add nuw i32 %.03151.us, 1
  %32 = load i32, ptr %25, align 4, !tbaa !75
  %33 = add nsw i32 %32, %.052.us
  %exitcond57.not = icmp eq i32 %.03151.us, %1
  br i1 %exitcond57.not, label %._crit_edge, label %.preheader39.us, !llvm.loop !76

.preheader.us.us:                                 ; preds = %.preheader39.us, %43
  %.03044.us.us = phi i32 [ %44, %43 ], [ 0, %.preheader39.us ]
  br label %48

34:                                               ; preds = %._crit_edge.us.us
  %35 = add nsw i32 %.03044.us.us, %.052.us
  %36 = and i32 %35, 31
  %37 = shl nuw i32 1, %36
  %38 = ashr i32 %35, 5
  %39 = sext i32 %38 to i64
  %40 = getelementptr inbounds i32, ptr %24, i64 %39
  %41 = load i32, ptr %40, align 4, !tbaa !48
  %42 = or i32 %41, %37
  store i32 %42, ptr %40, align 4, !tbaa !48
  br label %43

43:                                               ; preds = %._crit_edge.us.us, %34
  %44 = add nuw nsw i32 %.03044.us.us, 1
  %.val37.us.us = load i32, ptr %6, align 8, !tbaa !69
  %.val38.us.us = load ptr, ptr %7, align 8, !tbaa !70
  %45 = getelementptr i8, ptr %.val38.us.us, i64 4
  %.val38.val.us.us = load i32, ptr %45, align 4, !tbaa !38
  %46 = sub nsw i32 %.val38.val.us.us, %.val37.us.us
  %47 = icmp slt i32 %44, %46
  br i1 %47, label %.preheader.us.us, label %._crit_edge45.split.us.us, !llvm.loop !77

48:                                               ; preds = %48, %.preheader.us.us
  %indvars.iv = phi i64 [ %indvars.iv.next, %48 ], [ %28, %.preheader.us.us ]
  %indvars.iv.next = add nsw i64 %indvars.iv, -1
  %49 = tail call i32 @Gia_ManRandom(i32 noundef 0) #16
  %50 = getelementptr inbounds nuw i32, ptr %17, i64 %indvars.iv.next
  store i32 %49, ptr %50, align 4, !tbaa !48
  %51 = icmp sgt i64 %indvars.iv, 1
  br i1 %51, label %48, label %._crit_edge.us.us, !llvm.loop !78

._crit_edge.us.us:                                ; preds = %48
  %52 = load i32, ptr %21, align 4, !tbaa !48
  %53 = and i32 %52, %23
  %.not34.us.us = icmp eq i32 %53, 0
  br i1 %.not34.us.us, label %43, label %34

.preheader39:                                     ; preds = %.preheader39.preheader, %._crit_edge45.split
  %.val3741 = phi i32 [ %.val374158, %._crit_edge45.split ], [ %.val3741.pre, %.preheader39.preheader ]
  %.052 = phi i32 [ %70, %._crit_edge45.split ], [ %14, %.preheader39.preheader ]
  %.03151 = phi i32 [ %68, %._crit_edge45.split ], [ 0, %.preheader39.preheader ]
  %.val38.val43 = load i32, ptr %26, align 4, !tbaa !38
  %54 = icmp sgt i32 %.val38.val43, %.val3741
  br i1 %54, label %.preheader.lr.ph, label %._crit_edge45.split

.preheader.lr.ph:                                 ; preds = %.preheader39
  %55 = load i32, ptr %21, align 4, !tbaa !48
  %56 = and i32 %55, %23
  %.not34 = icmp eq i32 %56, 0
  br i1 %.not34, label %._crit_edge45.split, label %.preheader

.preheader:                                       ; preds = %.preheader.lr.ph, %.preheader
  %.03044 = phi i32 [ %65, %.preheader ], [ 0, %.preheader.lr.ph ]
  %57 = add nsw i32 %.03044, %.052
  %58 = and i32 %57, 31
  %59 = shl nuw i32 1, %58
  %60 = ashr i32 %57, 5
  %61 = sext i32 %60 to i64
  %62 = getelementptr inbounds i32, ptr %24, i64 %61
  %63 = load i32, ptr %62, align 4, !tbaa !48
  %64 = or i32 %63, %59
  store i32 %64, ptr %62, align 4, !tbaa !48
  %65 = add nuw nsw i32 %.03044, 1
  %.val37 = load i32, ptr %6, align 8, !tbaa !69
  %.val38.val = load i32, ptr %27, align 4, !tbaa !38
  %66 = sub nsw i32 %.val38.val, %.val37
  %67 = icmp slt i32 %65, %66
  br i1 %67, label %.preheader, label %._crit_edge45.split, !llvm.loop !77

._crit_edge45.split:                              ; preds = %.preheader, %.preheader.lr.ph, %.preheader39
  %.val374158 = phi i32 [ %.val3741, %.preheader39 ], [ %.val3741, %.preheader.lr.ph ], [ %.val37, %.preheader ]
  %68 = add nuw i32 %.03151, 1
  %69 = load i32, ptr %25, align 4, !tbaa !75
  %70 = add nsw i32 %69, %.052
  %exitcond.not = icmp eq i32 %.03151, %1
  br i1 %exitcond.not, label %._crit_edge, label %.preheader39, !llvm.loop !76

._crit_edge:                                      ; preds = %._crit_edge45.split, %._crit_edge45.split.us.us, %5
  %.not33 = icmp eq ptr %17, null
  br i1 %.not33, label %72, label %71

71:                                               ; preds = %._crit_edge
  tail call void @free(ptr noundef nonnull %17) #16
  br label %72

72:                                               ; preds = %._crit_edge, %71
  ret ptr %11
}